target datalayout = "e-m:e-p270:32:32-p271:32:32-p272:64:64-i64:64-i128:128-f80:128-n8:16:32:64-S128"
target triple = "x86_64-pc-linux-gnu"

%struct.lua_State = type { %struct.GCRef, i8, i8, i8, i8, %struct.MRef, %struct.GCRef, ptr, ptr, %struct.MRef, %struct.MRef, %struct.GCRef, %struct.GCRef, ptr, i32 }
%struct.MRef = type { i64 }
%struct.GCRef = type { i64 }
%union.TValue = type { i64 }
%struct.GCudata = type { %struct.GCRef, i8, i8, i8, i8, %struct.GCRef, i32, %struct.GCRef, i32 }
%struct.IOFileUD = type { ptr, i32 }

@.str.17 = private unnamed_addr constant [5 x i8] c"file\00", align 1
@.str.18 = private unnamed_addr constant [12 x i8] c"closed file\00", align 1

; Function Attrs: nounwind uwtable
define internal i32 @lj_cf_io_type(ptr noundef %0) #0 {
  %2 = alloca ptr, align 8
  %3 = alloca ptr, align 8
  store ptr %0, ptr %2, align 8, !tbaa !4
  call void @llvm.lifetime.start.p0(i64 8, ptr %3) #10
  %4 = load ptr, ptr %2, align 8, !tbaa !4
  %5 = call ptr @lj_lib_checkany(ptr noundef %4, i32 noundef 1)
  store ptr %5, ptr %3, align 8, !tbaa !20
  %6 = load ptr, ptr %3, align 8, !tbaa !20
  %7 = load i64, ptr %6, align 8, !tbaa !22
  %8 = ashr i64 %7, 47
  %9 = trunc i64 %8 to i32
  %10 = icmp eq i32 %9, -13
  br i1 %10, label %11, label %21

11:                                               ; preds = %1
  %12 = load ptr, ptr %3, align 8, !tbaa !20
  %13 = getelementptr inbounds nuw %struct.GCRef, ptr %12, i32 0, i32 0
  %14 = load i64, ptr %13, align 8, !tbaa !22
  %15 = and i64 %14, 140737488355327
  %16 = inttoptr i64 %15 to ptr
  %17 = getelementptr inbounds nuw %struct.GCudata, ptr %16, i32 0, i32 3
  %18 = load i8, ptr %17, align 2, !tbaa !22
  %19 = zext i8 %18 to i32
  %20 = icmp eq i32 %19, 1
  br i1 %20, label %26, label %21

21:                                               ; preds = %11, %1
  %22 = load ptr, ptr %2, align 8, !tbaa !4
  %23 = getelementptr inbounds nuw %struct.lua_State, ptr %22, i32 0, i32 8
  %24 = load ptr, ptr %23, align 8, !tbaa !9
  %25 = getelementptr inbounds nuw %union.TValue, ptr %24, i32 1
  store ptr %25, ptr %23, align 8, !tbaa !9
  store i64 -1, ptr %24, align 8, !tbaa !22
  br label %41

26:                                               ; preds = %11
  %27 = load ptr, ptr %3, align 8, !tbaa !20
  %28 = getelementptr inbounds nuw %struct.GCRef, ptr %27, i32 0, i32 0
  %29 = load i64, ptr %28, align 8, !tbaa !22
  %30 = and i64 %29, 140737488355327
  %31 = inttoptr i64 %30 to ptr
  %32 = getelementptr inbounds %struct.GCudata, ptr %31, i64 1
  %33 = getelementptr inbounds nuw %struct.IOFileUD, ptr %32, i32 0, i32 0
  %34 = load ptr, ptr %33, align 8, !tbaa !32
  %35 = icmp ne ptr %34, null
  br i1 %35, label %36, label %38

36:                                               ; preds = %26
  %37 = load ptr, ptr %2, align 8, !tbaa !4
  call void @lua_pushlstring(ptr noundef %37, ptr noundef @.str.17, i64 noundef 4)
  br label %40

38:                                               ; preds = %26
  %39 = load ptr, ptr %2, align 8, !tbaa !4
  call void @lua_pushlstring(ptr noundef %39, ptr noundef @.str.18, i64 noundef 11)
  br label %40

40:                                               ; preds = %38, %36
  br label %41

41:                                               ; preds = %40, %21
  call void @llvm.lifetime.end.p0(i64 8, ptr %3) #10
  ret i32 1
}