; Function Attrs: nounwind uwtable
define internal noundef i32 @lj_cf_io_type(ptr noundef %0) #0 {
  %2 = tail call ptr @lj_lib_checkany(ptr noundef %0, i32 noundef 1) #10
  %3 = load i64, ptr %2, align 8, !tbaa !14
  %.mask = and i64 %3, -140737488355328
  %4 = icmp eq i64 %.mask, -1829587348619264
  br i1 %4, label %5, label %11

5:                                                ; preds = %1
  %6 = and i64 %3, 140737488355327
  %7 = inttoptr i64 %6 to ptr
  %8 = getelementptr inbounds nuw i8, ptr %7, i64 10
  %9 = load i8, ptr %8, align 2, !tbaa !14
  %10 = icmp eq i8 %9, 1
  br i1 %10, label %15, label %11

11:                                               ; preds = %5, %1
  %12 = getelementptr inbounds nuw i8, ptr %0, i64 40
  %13 = load ptr, ptr %12, align 8, !tbaa !4
  %14 = getelementptr inbounds nuw i8, ptr %13, i64 8
  store ptr %14, ptr %12, align 8, !tbaa !4
  store i64 -1, ptr %13, align 8, !tbaa !14
  br label %20

15:                                               ; preds = %5
  %16 = getelementptr inbounds nuw i8, ptr %7, i64 48
  %17 = load ptr, ptr %16, align 8, !tbaa !20
  %.not = icmp eq ptr %17, null
  br i1 %.not, label %19, label %18

18:                                               ; preds = %15
  tail call void @lua_pushlstring(ptr noundef %0, ptr noundef nonnull @.str.17, i64 noundef 4) #10
  br label %20

19:                                               ; preds = %15
  tail call void @lua_pushlstring(ptr noundef %0, ptr noundef nonnull @.str.18, i64 noundef 11) #10
  br label %20

20:                                               ; preds = %18, %19, %11
  ret i32 1
}